; Function Attrs: mustprogress uwtable
define noundef zeroext i1 @_ZN8MdiChild6saveAsEv(ptr noundef nonnull align 8 dereferenceable(153) %0) local_unnamed_addr #0 align 2 personality ptr @__gxx_personality_v0 {
  %2 = alloca %class.QString, align 8
  %3 = alloca %class.QString, align 8
  %4 = alloca %class.QString, align 8
  call void @_ZNK11QMetaObject2trEPKcS1_i(ptr dead_on_unwind nonnull writable sret(%class.QString) align 8 %3, ptr noundef nonnull align 8 dereferenceable(56) @_ZN8MdiChild16staticMetaObjectE, ptr noundef nonnull @.str.6, ptr noundef null, i32 noundef -1)
  %5 = getelementptr inbounds i8, ptr %0, i64 128
  call void @llvm.memset.p0.i64(ptr noundef nonnull align 8 dereferenceable(24) %4, i8 0, i64 24, i1 false)
  invoke void @_ZN11QFileDialog15getSaveFileNameEP7QWidgetRK7QStringS4_S4_PS2_6QFlagsINS_6OptionEE(ptr dead_on_unwind nonnull writable sret(%class.QString) align 8 %2, ptr noundef nonnull %0, ptr noundef nonnull align 8 dereferenceable(24) %3, ptr noundef nonnull align 8 dereferenceable(24) %5, ptr noundef nonnull align 8 dereferenceable(24) %4, ptr noundef null, i32 0)
          to label %6 unwind label %18

6:                                                ; preds = %1
  %7 = load ptr, ptr %4, align 8
  %.not.i.i.i = icmp eq ptr %7, null
  br i1 %.not.i.i.i, label %_ZN7QStringD2Ev.exit, label %_ZN17QArrayDataPointerIDsE5derefEv.exit.i.i

_ZN17QArrayDataPointerIDsE5derefEv.exit.i.i:      ; preds = %6
  %8 = atomicrmw sub ptr %7, i32 1 seq_cst, align 4
  %.not.i.i = icmp eq i32 %8, 1
  br i1 %.not.i.i, label %9, label %_ZN7QStringD2Ev.exit

9:                                                ; preds = %_ZN17QArrayDataPointerIDsE5derefEv.exit.i.i
  %10 = load ptr, ptr %4, align 8
  call void @_ZN10QArrayData10deallocateEPS_xx(ptr noundef %10, i64 noundef 2, i64 noundef 8) #10
  br label %_ZN7QStringD2Ev.exit

_ZN7QStringD2Ev.exit:                             ; preds = %6, %_ZN17QArrayDataPointerIDsE5derefEv.exit.i.i, %9
  %11 = load ptr, ptr %3, align 8
  %.not.i.i.i6 = icmp eq ptr %11, null
  br i1 %.not.i.i.i6, label %_ZN7QStringD2Ev.exit9, label %_ZN17QArrayDataPointerIDsE5derefEv.exit.i.i7

_ZN17QArrayDataPointerIDsE5derefEv.exit.i.i7:     ; preds = %_ZN7QStringD2Ev.exit
  %12 = atomicrmw sub ptr %11, i32 1 seq_cst, align 4
  %.not.i.i8 = icmp eq i32 %12, 1
  br i1 %.not.i.i8, label %13, label %_ZN7QStringD2Ev.exit9

13:                                               ; preds = %_ZN17QArrayDataPointerIDsE5derefEv.exit.i.i7
  %14 = load ptr, ptr %3, align 8
  call void @_ZN10QArrayData10deallocateEPS_xx(ptr noundef %14, i64 noundef 2, i64 noundef 8) #10
  br label %_ZN7QStringD2Ev.exit9

_ZN7QStringD2Ev.exit9:                            ; preds = %_ZN7QStringD2Ev.exit, %_ZN17QArrayDataPointerIDsE5derefEv.exit.i.i7, %13
  %15 = getelementptr inbounds i8, ptr %2, i64 16
  %16 = load i64, ptr %15, align 8
  %17 = icmp eq i64 %16, 0
  br i1 %17, label %32, label %30

18:                                               ; preds = %1
  %19 = landingpad { ptr, i32 }
          cleanup
  %20 = load ptr, ptr %4, align 8
  %.not.i.i.i10 = icmp eq ptr %20, null
  br i1 %.not.i.i.i10, label %_ZN7QStringD2Ev.exit13, label %_ZN17QArrayDataPointerIDsE5derefEv.exit.i.i11

_ZN17QArrayDataPointerIDsE5derefEv.exit.i.i11:    ; preds = %18
  %21 = atomicrmw sub ptr %20, i32 1 seq_cst, align 4
  %.not.i.i12 = icmp eq i32 %21, 1
  br i1 %.not.i.i12, label %22, label %_ZN7QStringD2Ev.exit13

22:                                               ; preds = %_ZN17QArrayDataPointerIDsE5derefEv.exit.i.i11
  %23 = load ptr, ptr %4, align 8
  call void @_ZN10QArrayData10deallocateEPS_xx(ptr noundef %23, i64 noundef 2, i64 noundef 8) #10
  br label %_ZN7QStringD2Ev.exit13

_ZN7QStringD2Ev.exit13:                           ; preds = %18, %_ZN17QArrayDataPointerIDsE5derefEv.exit.i.i11, %22
  %24 = load ptr, ptr %3, align 8
  %.not.i.i.i14 = icmp eq ptr %24, null
  br i1 %.not.i.i.i14, label %_ZN7QStringD2Ev.exit17, label %_ZN17QArrayDataPointerIDsE5derefEv.exit.i.i15

_ZN17QArrayDataPointerIDsE5derefEv.exit.i.i15:    ; preds = %_ZN7QStringD2Ev.exit13
  %25 = atomicrmw sub ptr %24, i32 1 seq_cst, align 4
  %.not.i.i16 = icmp eq i32 %25, 1
  br i1 %.not.i.i16, label %_ZN7QStringD2Ev.exit17.sink.split, label %_ZN7QStringD2Ev.exit17

26:                                               ; preds = %30
  %27 = landingpad { ptr, i32 }
          cleanup
  %28 = load ptr, ptr %2, align 8
  %.not.i.i.i18 = icmp eq ptr %28, null
  br i1 %.not.i.i.i18, label %_ZN7QStringD2Ev.exit17, label %_ZN17QArrayDataPointerIDsE5derefEv.exit.i.i19

_ZN17QArrayDataPointerIDsE5derefEv.exit.i.i19:    ; preds = %26
  %29 = atomicrmw sub ptr %28, i32 1 seq_cst, align 4
  %.not.i.i20 = icmp eq i32 %29, 1
  br i1 %.not.i.i20, label %_ZN7QStringD2Ev.exit17.sink.split, label %_ZN7QStringD2Ev.exit17

30:                                               ; preds = %_ZN7QStringD2Ev.exit9
  %31 = invoke noundef zeroext i1 @_ZN8MdiChild8saveFileERK7QString(ptr noundef nonnull align 8 dereferenceable(153) %0, ptr noundef nonnull align 8 dereferenceable(24) %2)
          to label %32 unwind label %26

32:                                               ; preds = %30, %_ZN7QStringD2Ev.exit9
  %.04 = phi i1 [ false, %_ZN7QStringD2Ev.exit9 ], [ %31, %30 ]
  %33 = load ptr, ptr %2, align 8
  %.not.i.i.i22 = icmp eq ptr %33, null
  br i1 %.not.i.i.i22, label %_ZN7QStringD2Ev.exit25, label %_ZN17QArrayDataPointerIDsE5derefEv.exit.i.i23

_ZN17QArrayDataPointerIDsE5derefEv.exit.i.i23:    ; preds = %32
  %34 = atomicrmw sub ptr %33, i32 1 seq_cst, align 4
  %.not.i.i24 = icmp eq i32 %34, 1
  br i1 %.not.i.i24, label %35, label %_ZN7QStringD2Ev.exit25

35:                                               ; preds = %_ZN17QArrayDataPointerIDsE5derefEv.exit.i.i23
  %36 = load ptr, ptr %2, align 8
  call void @_ZN10QArrayData10deallocateEPS_xx(ptr noundef %36, i64 noundef 2, i64 noundef 8) #10
  br label %_ZN7QStringD2Ev.exit25

_ZN7QStringD2Ev.exit25:                           ; preds = %32, %_ZN17QArrayDataPointerIDsE5derefEv.exit.i.i23, %35
  ret i1 %.04

_ZN7QStringD2Ev.exit17.sink.split:                ; preds = %_ZN17QArrayDataPointerIDsE5derefEv.exit.i.i19, %_ZN17QArrayDataPointerIDsE5derefEv.exit.i.i15
  %.sink.in = phi ptr [ %3, %_ZN17QArrayDataPointerIDsE5derefEv.exit.i.i15 ], [ %2, %_ZN17QArrayDataPointerIDsE5derefEv.exit.i.i19 ]
  %.pn.ph = phi { ptr, i32 } [ %19, %_ZN17QArrayDataPointerIDsE5derefEv.exit.i.i15 ], [ %27, %_ZN17QArrayDataPointerIDsE5derefEv.exit.i.i19 ]
  %.sink = load ptr, ptr %.sink.in, align 8
  call void @_ZN10QArrayData10deallocateEPS_xx(ptr noundef %.sink, i64 noundef 2, i64 noundef 8) #10
  br label %_ZN7QStringD2Ev.exit17

_ZN7QStringD2Ev.exit17:                           ; preds = %_ZN7QStringD2Ev.exit17.sink.split, %_ZN17QArrayDataPointerIDsE5derefEv.exit.i.i19, %26, %_ZN17QArrayDataPointerIDsE5derefEv.exit.i.i15, %_ZN7QStringD2Ev.exit13
  %.pn = phi { ptr, i32 } [ %19, %_ZN7QStringD2Ev.exit13 ], [ %19, %_ZN17QArrayDataPointerIDsE5derefEv.exit.i.i15 ], [ %27, %26 ], [ %27, %_ZN17QArrayDataPointerIDsE5derefEv.exit.i.i19 ], [ %.pn.ph, %_ZN7QStringD2Ev.exit17.sink.split ]
  resume { ptr, i32 } %.pn
}